; Function Attrs: nounwind uwtable
define void @dt_bauhaus_combobox_set_text(ptr noundef %0, ptr noundef %1) local_unnamed_addr #0 {
  %3 = load atomic i64, ptr @dt_bh_get_type.static_g_define_type_id seq_cst, align 8
  %.not.i.i.i = icmp eq i64 %3, 0
  br i1 %.not.i.i.i, label %4, label %DT_BAUHAUS_WIDGET.exit.i

4:                                                ; preds = %2
  %5 = tail call i32 @g_once_init_enter(ptr noundef nonnull @dt_bh_get_type.static_g_define_type_id) #19
  %.not4.i.i.i = icmp eq i32 %5, 0
  br i1 %.not4.i.i.i, label %DT_BAUHAUS_WIDGET.exit.i, label %6

6:                                                ; preds = %4
  %7 = tail call fastcc i64 @dt_bh_get_type_once()
  tail call void @g_once_init_leave(ptr noundef nonnull @dt_bh_get_type.static_g_define_type_id, i64 noundef %7) #19
  br label %DT_BAUHAUS_WIDGET.exit.i

DT_BAUHAUS_WIDGET.exit.i:                         ; preds = %6, %4, %2
  %8 = load i64, ptr @dt_bh_get_type.static_g_define_type_id, align 8, !tbaa !6
  %9 = tail call ptr @g_type_check_instance_cast(ptr noundef %0, i64 noundef %8) #19
  %10 = getelementptr inbounds nuw i8, ptr %9, i64 40
  %11 = load i32, ptr %10, align 8, !tbaa !105
  %.not.i = icmp eq i32 %11, 2
  br i1 %.not.i, label %12, label %_combobox_data.exit

12:                                               ; preds = %DT_BAUHAUS_WIDGET.exit.i
  %13 = getelementptr inbounds nuw i8, ptr %9, i64 408
  %14 = load i32, ptr %13, align 8, !tbaa !137
  %15 = getelementptr inbounds nuw i8, ptr %9, i64 440
  %16 = load ptr, ptr %15, align 8, !tbaa !128
  %17 = getelementptr inbounds nuw i8, ptr %16, i64 8
  %18 = load i32, ptr %17, align 8, !tbaa !131
  %.not8.i = icmp ult i32 %14, %18
  br i1 %.not8.i, label %20, label %19

19:                                               ; preds = %12
  store i32 -1, ptr %13, align 8, !tbaa !137
  br label %20

20:                                               ; preds = %19, %12
  %21 = getelementptr inbounds nuw i8, ptr %9, i64 416
  %22 = load i32, ptr %21, align 8, !tbaa !150
  %.not6 = icmp eq i32 %22, 0
  br i1 %.not6, label %_combobox_data.exit, label %23

23:                                               ; preds = %20
  %24 = getelementptr inbounds nuw i8, ptr %9, i64 424
  %25 = load ptr, ptr %24, align 8, !tbaa !164
  %26 = tail call i64 @g_strlcpy(ptr noundef %25, ptr noundef %1, i64 noundef 180) #19
  %27 = tail call i64 @gtk_widget_get_type() #20
  %28 = tail call ptr @g_type_check_instance_cast(ptr noundef %0, i64 noundef %27) #19
  tail call void @gtk_widget_queue_draw(ptr noundef %28) #19
  br label %_combobox_data.exit

_combobox_data.exit:                              ; preds = %DT_BAUHAUS_WIDGET.exit.i, %20, %23
  ret void
}